target datalayout = "e-m:e-p270:32:32-p271:32:32-p272:64:64-i64:64-i128:128-f80:128-n8:16:32:64-S128"
target triple = "x86_64-pc-linux-gnu"

%struct._asn1_ctx_t = type { i32, i32, i8, ptr, ptr, ptr, ptr, ptr, %struct.anon, %struct.anon.2, %struct.anon.3, ptr }
%struct.anon = type { i32, i8, i8, i8, ptr, ptr, i32, i32, ptr, ptr, ptr, %union.anon }
%union.anon = type { %struct.anon.0 }
%struct.anon.0 = type { ptr }
%struct.anon.2 = type { ptr, ptr, ptr }
%struct.anon.3 = type { i32, i8, ptr, i32, i32, ptr, ptr, ptr, %union.anon.4 }
%union.anon.4 = type { %struct.anon.5 }
%struct.anon.5 = type { ptr }
%struct._packet_info = type { ptr, ptr, i32, i32, %struct.nstime_t, %struct.nstime_t, %struct.nstime_t, i8, ptr, ptr, ptr, ptr, %struct._address, %struct._address, %struct._address, %struct._address, %struct._address, %struct._address, i32, ptr, i8, [3 x i8], %struct.anon.7, i32, i32, i32, i32, ptr, i8, ptr, ptr, i16, i16, i32, i32, i16, i32, i32, ptr, ptr, ptr, i8, i8, i16, i16, i16, i32, i16, i16, ptr, ptr, ptr, ptr, ptr, i32, i32 }
%struct.nstime_t = type { i64, i32 }
%struct._address = type { i32, i32, ptr, ptr }
%struct.anon.7 = type { i8, [3 x i8] }
%struct.p1_address_ctx = type { i8, ptr, i8, ptr }

@.str.4 = private unnamed_addr constant [1 x i8] zeroinitializer, align 1
@.str.5 = private unnamed_addr constant [7 x i8] c" (%s/)\00", align 1
@ett_p1_ORAddress = internal global i32 0, align 4

; Function Attrs: null_pointer_is_valid sspstrong uwtable
define internal void @set_do_address(ptr noundef %0, i1 noundef zeroext %1) #0 {
  %3 = alloca ptr, align 8
  %4 = alloca i8, align 1
  %5 = alloca ptr, align 8
  store ptr %0, ptr %3, align 8
  %6 = zext i1 %1 to i8
  store i8 %6, ptr %4, align 1
  call void @llvm.lifetime.start.p0(i64 8, ptr %5) #5
  %7 = load ptr, ptr %3, align 8
  %8 = getelementptr inbounds nuw %struct._asn1_ctx_t, ptr %7, i32 0, i32 9
  %9 = getelementptr inbounds nuw %struct.anon.2, ptr %8, i32 0, i32 2
  %10 = load ptr, ptr %9, align 8
  %11 = icmp eq ptr %10, null
  br i1 %11, label %12, label %22

12:                                               ; preds = %2
  %13 = load ptr, ptr %3, align 8
  %14 = getelementptr inbounds nuw %struct._asn1_ctx_t, ptr %13, i32 0, i32 3
  %15 = load ptr, ptr %14, align 8
  %16 = getelementptr inbounds nuw %struct._packet_info, ptr %15, i32 0, i32 51
  %17 = load ptr, ptr %16, align 8
  %18 = call noalias ptr @wmem_alloc0(ptr noundef %17, i64 noundef 32) #6
  %19 = load ptr, ptr %3, align 8
  %20 = getelementptr inbounds nuw %struct._asn1_ctx_t, ptr %19, i32 0, i32 9
  %21 = getelementptr inbounds nuw %struct.anon.2, ptr %20, i32 0, i32 2
  store ptr %18, ptr %21, align 8
  br label %22

22:                                               ; preds = %12, %2
  %23 = load ptr, ptr %3, align 8
  %24 = getelementptr inbounds nuw %struct._asn1_ctx_t, ptr %23, i32 0, i32 9
  %25 = getelementptr inbounds nuw %struct.anon.2, ptr %24, i32 0, i32 2
  %26 = load ptr, ptr %25, align 8
  store ptr %26, ptr %5, align 8
  %27 = load i8, ptr %4, align 1, !range !6, !noundef !7
  %28 = trunc i8 %27 to i1
  %29 = load ptr, ptr %5, align 8
  %30 = getelementptr inbounds nuw %struct.p1_address_ctx, ptr %29, i32 0, i32 0
  %31 = zext i1 %28 to i8
  store i8 %31, ptr %30, align 8
  call void @llvm.lifetime.end.p0(i64 8, ptr %5) #5
  ret void
}

; Function Attrs: null_pointer_is_valid sspstrong uwtable
define hidden i32 @dissect_p1_ORAddress(i1 noundef zeroext %0, ptr noundef %1, i32 noundef %2, ptr noundef %3, ptr noundef %4, i32 noundef %5) #0 {
  %7 = alloca i8, align 1
  %8 = alloca ptr, align 8
  %9 = alloca i32, align 4
  %10 = alloca ptr, align 8
  %11 = alloca ptr, align 8
  %12 = alloca i32, align 4
  %13 = alloca ptr, align 8
  %14 = zext i1 %0 to i8
  store i8 %14, ptr %7, align 1
  store ptr %1, ptr %8, align 8
  store i32 %2, ptr %9, align 4
  store ptr %3, ptr %10, align 8
  store ptr %4, ptr %11, align 8
  store i32 %5, ptr %12, align 4
  call void @llvm.lifetime.start.p0(i64 8, ptr %13) #5
  %15 = load ptr, ptr %10, align 8
  %16 = getelementptr inbounds nuw %struct._asn1_ctx_t, ptr %15, i32 0, i32 9
  %17 = getelementptr inbounds nuw %struct.anon.2, ptr %16, i32 0, i32 2
  %18 = load ptr, ptr %17, align 8
  %19 = icmp eq ptr %18, null
  br i1 %19, label %20, label %30

20:                                               ; preds = %6
  %21 = load ptr, ptr %10, align 8
  %22 = getelementptr inbounds nuw %struct._asn1_ctx_t, ptr %21, i32 0, i32 3
  %23 = load ptr, ptr %22, align 8
  %24 = getelementptr inbounds nuw %struct._packet_info, ptr %23, i32 0, i32 51
  %25 = load ptr, ptr %24, align 8
  %26 = call noalias ptr @wmem_alloc0(ptr noundef %25, i64 noundef 32) #6
  %27 = load ptr, ptr %10, align 8
  %28 = getelementptr inbounds nuw %struct._asn1_ctx_t, ptr %27, i32 0, i32 9
  %29 = getelementptr inbounds nuw %struct.anon.2, ptr %28, i32 0, i32 2
  store ptr %26, ptr %29, align 8
  br label %30

30:                                               ; preds = %20, %6
  %31 = load ptr, ptr %10, align 8
  %32 = getelementptr inbounds nuw %struct._asn1_ctx_t, ptr %31, i32 0, i32 9
  %33 = getelementptr inbounds nuw %struct.anon.2, ptr %32, i32 0, i32 2
  %34 = load ptr, ptr %33, align 8
  store ptr %34, ptr %13, align 8
  %35 = load ptr, ptr %10, align 8
  %36 = getelementptr inbounds nuw %struct._asn1_ctx_t, ptr %35, i32 0, i32 3
  %37 = load ptr, ptr %36, align 8
  %38 = getelementptr inbounds nuw %struct._packet_info, ptr %37, i32 0, i32 51
  %39 = load ptr, ptr %38, align 8
  %40 = call noalias ptr @wmem_strbuf_new(ptr noundef %39, ptr noundef @.str.4)
  %41 = load ptr, ptr %13, align 8
  %42 = getelementptr inbounds nuw %struct.p1_address_ctx, ptr %41, i32 0, i32 3
  store ptr %40, ptr %42, align 8
  %43 = load ptr, ptr %10, align 8
  %44 = getelementptr inbounds nuw %struct._asn1_ctx_t, ptr %43, i32 0, i32 9
  %45 = getelementptr inbounds nuw %struct.anon.2, ptr %44, i32 0, i32 0
  store ptr null, ptr %45, align 8
  %46 = load ptr, ptr %10, align 8
  call void @set_do_address(ptr noundef %46, i1 noundef zeroext true)
  %47 = load i8, ptr %7, align 1, !range !6, !noundef !7
  %48 = trunc i8 %47 to i1
  %49 = load ptr, ptr %10, align 8
  %50 = load ptr, ptr %11, align 8
  %51 = load ptr, ptr %8, align 8
  %52 = load i32, ptr %9, align 4
  %53 = load i32, ptr %12, align 4
  %54 = load i32, ptr @ett_p1_ORAddress, align 4
  %55 = call i32 @dissect_ber_sequence(i1 noundef zeroext %48, ptr noundef %49, ptr noundef %50, ptr noundef %51, i32 noundef %52, ptr noundef @ORAddress_sequence, i32 noundef %53, i32 noundef %54)
  store i32 %55, ptr %9, align 4
  %56 = load ptr, ptr %13, align 8
  %57 = getelementptr inbounds nuw %struct.p1_address_ctx, ptr %56, i32 0, i32 3
  %58 = load ptr, ptr %57, align 8
  %59 = icmp ne ptr %58, null
  br i1 %59, label %60, label %81

60:                                               ; preds = %30
  %61 = load ptr, ptr %13, align 8
  %62 = getelementptr inbounds nuw %struct.p1_address_ctx, ptr %61, i32 0, i32 3
  %63 = load ptr, ptr %62, align 8
  %64 = call i64 @wmem_strbuf_get_len(ptr noundef %63)
  %65 = icmp ugt i64 %64, 0
  br i1 %65, label %66, label %81

66:                                               ; preds = %60
  %67 = load ptr, ptr %10, align 8
  %68 = getelementptr inbounds nuw %struct._asn1_ctx_t, ptr %67, i32 0, i32 9
  %69 = getelementptr inbounds nuw %struct.anon.2, ptr %68, i32 0, i32 0
  %70 = load ptr, ptr %69, align 8
  %71 = icmp ne ptr %70, null
  br i1 %71, label %72, label %81

72:                                               ; preds = %66
  %73 = load ptr, ptr %10, align 8
  %74 = getelementptr inbounds nuw %struct._asn1_ctx_t, ptr %73, i32 0, i32 9
  %75 = getelementptr inbounds nuw %struct.anon.2, ptr %74, i32 0, i32 0
  %76 = load ptr, ptr %75, align 8
  %77 = load ptr, ptr %13, align 8
  %78 = getelementptr inbounds nuw %struct.p1_address_ctx, ptr %77, i32 0, i32 3
  %79 = load ptr, ptr %78, align 8
  %80 = call ptr @wmem_strbuf_get_str(ptr noundef %79)
  call void (ptr, ptr, ...) @proto_item_append_text(ptr noundef %76, ptr noundef @.str.5, ptr noundef %80)
  br label %81

81:                                               ; preds = %72, %66, %60, %30
  %82 = load ptr, ptr %10, align 8
  call void @set_do_address(ptr noundef %82, i1 noundef zeroext false)
  %83 = load i32, ptr %9, align 4
  call void @llvm.lifetime.end.p0(i64 8, ptr %13) #5
  ret i32 %83
}