; Function Attrs: null_pointer_is_valid sspstrong uwtable
define hidden i32 @dissect_p1_ORAddress(i1 noundef zeroext %0, ptr noundef %1, i32 noundef %2, ptr noundef initializes((120, 128)) %3, ptr noundef %4, i32 noundef %5) local_unnamed_addr #0 {
  %7 = getelementptr inbounds nuw i8, ptr %3, i64 120
  %8 = getelementptr inbounds nuw i8, ptr %3, i64 136
  %9 = load ptr, ptr %8, align 8
  %10 = icmp eq ptr %9, null
  br i1 %10, label %11, label %17

11:                                               ; preds = %6
  %12 = getelementptr inbounds nuw i8, ptr %3, i64 16
  %13 = load ptr, ptr %12, align 8
  %14 = getelementptr inbounds nuw i8, ptr %13, i64 408
  %15 = load ptr, ptr %14, align 8
  %16 = tail call noalias dereferenceable_or_null(32) ptr @wmem_alloc0(ptr noundef %15, i64 noundef 32) #6
  store ptr %16, ptr %8, align 8
  br label %17

17:                                               ; preds = %11, %6
  %18 = phi ptr [ %16, %11 ], [ %9, %6 ]
  %19 = getelementptr inbounds nuw i8, ptr %3, i64 16
  %20 = load ptr, ptr %19, align 8
  %21 = getelementptr inbounds nuw i8, ptr %20, i64 408
  %22 = load ptr, ptr %21, align 8
  %23 = tail call noalias ptr @wmem_strbuf_new(ptr noundef %22, ptr noundef nonnull @.str.4)
  %24 = getelementptr inbounds nuw i8, ptr %18, i64 24
  store ptr %23, ptr %24, align 8
  store ptr null, ptr %7, align 8
  %25 = load ptr, ptr %8, align 8
  %26 = icmp eq ptr %25, null
  br i1 %26, label %27, label %set_do_address.exit

27:                                               ; preds = %17
  %28 = load ptr, ptr %19, align 8
  %29 = getelementptr inbounds nuw i8, ptr %28, i64 408
  %30 = load ptr, ptr %29, align 8
  %31 = tail call noalias dereferenceable_or_null(32) ptr @wmem_alloc0(ptr noundef %30, i64 noundef 32) #6
  store ptr %31, ptr %8, align 8
  br label %set_do_address.exit

set_do_address.exit:                              ; preds = %17, %27
  %32 = phi ptr [ %31, %27 ], [ %25, %17 ]
  store i8 1, ptr %32, align 8
  %33 = load i32, ptr @ett_p1_ORAddress, align 4
  %34 = tail call i32 @dissect_ber_sequence(i1 noundef zeroext %0, ptr noundef %3, ptr noundef %4, ptr noundef %1, i32 noundef %2, ptr noundef nonnull @ORAddress_sequence, i32 noundef %5, i32 noundef %33)
  %35 = load ptr, ptr %24, align 8
  %.not = icmp eq ptr %35, null
  br i1 %.not, label %43, label %36

36:                                               ; preds = %set_do_address.exit
  %37 = tail call i64 @wmem_strbuf_get_len(ptr noundef nonnull %35)
  %.not21 = icmp eq i64 %37, 0
  br i1 %.not21, label %43, label %38

38:                                               ; preds = %36
  %39 = load ptr, ptr %7, align 8
  %.not22 = icmp eq ptr %39, null
  br i1 %.not22, label %43, label %40

40:                                               ; preds = %38
  %41 = load ptr, ptr %24, align 8
  %42 = tail call ptr @wmem_strbuf_get_str(ptr noundef %41)
  tail call void (ptr, ptr, ...) @proto_item_append_text(ptr noundef nonnull %39, ptr noundef nonnull @.str.5, ptr noundef %42)
  br label %43

43:                                               ; preds = %40, %38, %36, %set_do_address.exit
  %44 = load ptr, ptr %8, align 8
  %45 = icmp eq ptr %44, null
  br i1 %45, label %46, label %set_do_address.exit23

46:                                               ; preds = %43
  %47 = load ptr, ptr %19, align 8
  %48 = getelementptr inbounds nuw i8, ptr %47, i64 408
  %49 = load ptr, ptr %48, align 8
  %50 = tail call noalias dereferenceable_or_null(32) ptr @wmem_alloc0(ptr noundef %49, i64 noundef 32) #6
  store ptr %50, ptr %8, align 8
  br label %set_do_address.exit23

set_do_address.exit23:                            ; preds = %43, %46
  %51 = phi ptr [ %50, %46 ], [ %44, %43 ]
  store i8 0, ptr %51, align 8
  ret i32 %34
}